target datalayout = "e-m:e-p270:32:32-p271:32:32-p272:64:64-i64:64-i128:128-f80:128-n8:16:32:64-S128"
target triple = "x86_64-pc-linux-gnu"

@ett_bacapp_value = internal global i32 0, align 4
@.str.3055 = private unnamed_addr constant [7 x i8] c"Date: \00", align 1
@.str.3056 = private unnamed_addr constant [7 x i8] c"Time: \00", align 1
@.str.3886 = private unnamed_addr constant [21 x i8] c"unknown range option\00", align 1
@.str.3887 = private unnamed_addr constant [18 x i8] c"reference Index: \00", align 1
@.str.3888 = private unnamed_addr constant [18 x i8] c"reference Count: \00", align 1
@.str.3889 = private unnamed_addr constant [22 x i8] c"reference Date/Time: \00", align 1
@.str.3890 = private unnamed_addr constant [17 x i8] c"beginning Time: \00", align 1
@.str.3891 = private unnamed_addr constant [14 x i8] c"ending Time: \00", align 1

; Function Attrs: null_pointer_is_valid sspstrong uwtable
define internal i32 @fDateTime(ptr noundef %0, ptr noundef %1, ptr noundef %2, i32 noundef %3, ptr noundef %4) #0 {
  %6 = alloca ptr, align 8
  %7 = alloca ptr, align 8
  %8 = alloca ptr, align 8
  %9 = alloca i32, align 4
  %10 = alloca ptr, align 8
  %11 = alloca ptr, align 8
  store ptr %0, ptr %6, align 8
  store ptr %1, ptr %7, align 8
  store ptr %2, ptr %8, align 8
  store i32 %3, ptr %9, align 4
  store ptr %4, ptr %10, align 8
  call void @llvm.lifetime.start.p0(i64 8, ptr %11) #7
  %12 = load ptr, ptr %8, align 8
  store ptr %12, ptr %11, align 8
  %13 = load ptr, ptr %10, align 8
  %14 = icmp ne ptr %13, null
  br i1 %14, label %15, label %22

15:                                               ; preds = %5
  %16 = load ptr, ptr %11, align 8
  %17 = load ptr, ptr %6, align 8
  %18 = load i32, ptr %9, align 4
  %19 = load i32, ptr @ett_bacapp_value, align 4
  %20 = load ptr, ptr %10, align 8
  %21 = call ptr @proto_tree_add_subtree(ptr noundef %16, ptr noundef %17, i32 noundef %18, i32 noundef 10, i32 noundef %19, ptr noundef null, ptr noundef %20)
  store ptr %21, ptr %11, align 8
  br label %22

22:                                               ; preds = %15, %5
  %23 = load ptr, ptr %6, align 8
  %24 = load ptr, ptr %7, align 8
  %25 = load ptr, ptr %11, align 8
  %26 = load i32, ptr %9, align 4
  %27 = call i32 @fDate(ptr noundef %23, ptr noundef %24, ptr noundef %25, i32 noundef %26, ptr noundef @.str.3055)
  store i32 %27, ptr %9, align 4
  %28 = load ptr, ptr %6, align 8
  %29 = load ptr, ptr %7, align 8
  %30 = load ptr, ptr %11, align 8
  %31 = load i32, ptr %9, align 4
  %32 = call i32 @fTime(ptr noundef %28, ptr noundef %29, ptr noundef %30, i32 noundef %31, ptr noundef @.str.3056)
  call void @llvm.lifetime.end.p0(i64 8, ptr %11) #7
  ret i32 %32
}

; Function Attrs: null_pointer_is_valid sspstrong uwtable
define internal i32 @fApplicationTypes(ptr noundef %0, ptr noundef %1, ptr noundef %2, i32 noundef %3, ptr noundef %4) #0 {
  %6 = alloca ptr, align 8
  %7 = alloca ptr, align 8
  %8 = alloca ptr, align 8
  %9 = alloca i32, align 4
  %10 = alloca ptr, align 8
  store ptr %0, ptr %6, align 8
  store ptr %1, ptr %7, align 8
  store ptr %2, ptr %8, align 8
  store i32 %3, ptr %9, align 4
  store ptr %4, ptr %10, align 8
  %11 = load ptr, ptr %6, align 8
  %12 = load ptr, ptr %7, align 8
  %13 = load ptr, ptr %8, align 8
  %14 = load i32, ptr %9, align 4
  %15 = load ptr, ptr %10, align 8
  %16 = call i32 @fApplicationTypesEnumeratedSplit(ptr noundef %11, ptr noundef %12, ptr noundef %13, i32 noundef %14, ptr noundef %15, ptr noundef null, i32 noundef 0)
  ret i32 %16
}

; Function Attrs: nounwind null_pointer_is_valid sspstrong uwtable
define internal zeroext i1 @tag_is_opening(i8 noundef zeroext %0) #3 {
  %2 = alloca i8, align 1
  store i8 %0, ptr %2, align 1
  %3 = load i8, ptr %2, align 1
  %4 = zext i8 %3 to i32
  %5 = and i32 %4, 7
  %6 = icmp eq i32 %5, 6
  ret i1 %6
}

; Function Attrs: null_pointer_is_valid sspstrong uwtable
define internal i32 @fTagHeader(ptr noundef %0, ptr noundef %1, i32 noundef %2, ptr noundef %3, ptr noundef %4, ptr noundef %5) #0 {
  %7 = alloca ptr, align 8
  %8 = alloca ptr, align 8
  %9 = alloca i32, align 4
  %10 = alloca ptr, align 8
  %11 = alloca ptr, align 8
  %12 = alloca ptr, align 8
  store ptr %0, ptr %7, align 8
  store ptr %1, ptr %8, align 8
  store i32 %2, ptr %9, align 4
  store ptr %3, ptr %10, align 8
  store ptr %4, ptr %11, align 8
  store ptr %5, ptr %12, align 8
  %13 = load ptr, ptr %7, align 8
  %14 = load ptr, ptr %8, align 8
  %15 = load i32, ptr %9, align 4
  %16 = load ptr, ptr %10, align 8
  %17 = load ptr, ptr %11, align 8
  %18 = load ptr, ptr %12, align 8
  %19 = call i32 @fTagHeaderTree(ptr noundef %13, ptr noundef %14, ptr noundef null, i32 noundef %15, ptr noundef %16, ptr noundef %17, ptr noundef %18)
  ret i32 %19
}

; Function Attrs: null_pointer_is_valid sspstrong uwtable
define internal i32 @fReadRangeRequest(ptr noundef %0, ptr noundef %1, ptr noundef %2, i32 noundef %3) #0 {
  %5 = alloca ptr, align 8
  %6 = alloca ptr, align 8
  %7 = alloca ptr, align 8
  %8 = alloca i32, align 4
  %9 = alloca i8, align 1
  %10 = alloca i8, align 1
  %11 = alloca i32, align 4
  %12 = alloca ptr, align 8
  store ptr %0, ptr %5, align 8
  store ptr %1, ptr %6, align 8
  store ptr %2, ptr %7, align 8
  store i32 %3, ptr %8, align 4
  call void @llvm.lifetime.start.p0(i64 1, ptr %9) #7
  call void @llvm.lifetime.start.p0(i64 1, ptr %10) #7
  call void @llvm.lifetime.start.p0(i64 4, ptr %11) #7
  call void @llvm.lifetime.start.p0(i64 8, ptr %12) #7
  %13 = load ptr, ptr %7, align 8
  store ptr %13, ptr %12, align 8
  %14 = load ptr, ptr %5, align 8
  %15 = load ptr, ptr %6, align 8
  %16 = load ptr, ptr %12, align 8
  %17 = load i32, ptr %8, align 4
  %18 = call i32 @fBACnetObjectPropertyReference(ptr noundef %14, ptr noundef %15, ptr noundef %16, i32 noundef %17)
  store i32 %18, ptr %8, align 4
  %19 = load ptr, ptr %5, align 8
  %20 = load i32, ptr %8, align 4
  %21 = call i32 @tvb_reported_length_remaining(ptr noundef %19, i32 noundef %20)
  %22 = icmp sgt i32 %21, 0
  br i1 %22, label %23, label %91

23:                                               ; preds = %4
  %24 = load ptr, ptr %5, align 8
  %25 = load ptr, ptr %6, align 8
  %26 = load i32, ptr %8, align 4
  %27 = call i32 @fTagHeader(ptr noundef %24, ptr noundef %25, i32 noundef %26, ptr noundef %9, ptr noundef %10, ptr noundef %11)
  %28 = load i8, ptr %10, align 1
  %29 = call zeroext i1 @tag_is_opening(i8 noundef zeroext %28)
  br i1 %29, label %30, label %90

30:                                               ; preds = %23
  %31 = load ptr, ptr %12, align 8
  %32 = load ptr, ptr %5, align 8
  %33 = load i32, ptr %8, align 4
  %34 = load i32, ptr @ett_bacapp_value, align 4
  %35 = load i8, ptr %9, align 1
  %36 = zext i8 %35 to i32
  %37 = call ptr @val_to_str_const(i32 noundef %36, ptr noundef @BACnetReadRangeOptions, ptr noundef @.str.3886)
  %38 = call ptr @proto_tree_add_subtree(ptr noundef %31, ptr noundef %32, i32 noundef %33, i32 noundef 1, i32 noundef %34, ptr noundef null, ptr noundef %37)
  store ptr %38, ptr %12, align 8
  %39 = load ptr, ptr %5, align 8
  %40 = load ptr, ptr %6, align 8
  %41 = load ptr, ptr %12, align 8
  %42 = load i32, ptr %8, align 4
  %43 = call i32 @fTagHeaderTree(ptr noundef %39, ptr noundef %40, ptr noundef %41, i32 noundef %42, ptr noundef %9, ptr noundef %10, ptr noundef %11)
  %44 = load i32, ptr %8, align 4
  %45 = add i32 %44, %43
  store i32 %45, ptr %8, align 4
  %46 = load i8, ptr %9, align 1
  %47 = zext i8 %46 to i32
  switch i32 %47, label %81 [
    i32 3, label %48
    i32 6, label %48
    i32 4, label %59
    i32 7, label %59
    i32 5, label %70
  ]

48:                                               ; preds = %30, %30
  %49 = load ptr, ptr %5, align 8
  %50 = load ptr, ptr %6, align 8
  %51 = load ptr, ptr %12, align 8
  %52 = load i32, ptr %8, align 4
  %53 = call i32 @fApplicationTypes(ptr noundef %49, ptr noundef %50, ptr noundef %51, i32 noundef %52, ptr noundef @.str.3887)
  store i32 %53, ptr %8, align 4
  %54 = load ptr, ptr %5, align 8
  %55 = load ptr, ptr %6, align 8
  %56 = load ptr, ptr %12, align 8
  %57 = load i32, ptr %8, align 4
  %58 = call i32 @fApplicationTypes(ptr noundef %54, ptr noundef %55, ptr noundef %56, i32 noundef %57, ptr noundef @.str.3888)
  store i32 %58, ptr %8, align 4
  br label %82

59:                                               ; preds = %30, %30
  %60 = load ptr, ptr %5, align 8
  %61 = load ptr, ptr %6, align 8
  %62 = load ptr, ptr %12, align 8
  %63 = load i32, ptr %8, align 4
  %64 = call i32 @fDateTime(ptr noundef %60, ptr noundef %61, ptr noundef %62, i32 noundef %63, ptr noundef @.str.3889)
  store i32 %64, ptr %8, align 4
  %65 = load ptr, ptr %5, align 8
  %66 = load ptr, ptr %6, align 8
  %67 = load ptr, ptr %12, align 8
  %68 = load i32, ptr %8, align 4
  %69 = call i32 @fApplicationTypes(ptr noundef %65, ptr noundef %66, ptr noundef %67, i32 noundef %68, ptr noundef @.str.3888)
  store i32 %69, ptr %8, align 4
  br label %82

70:                                               ; preds = %30
  %71 = load ptr, ptr %5, align 8
  %72 = load ptr, ptr %6, align 8
  %73 = load ptr, ptr %12, align 8
  %74 = load i32, ptr %8, align 4
  %75 = call i32 @fDateTime(ptr noundef %71, ptr noundef %72, ptr noundef %73, i32 noundef %74, ptr noundef @.str.3890)
  store i32 %75, ptr %8, align 4
  %76 = load ptr, ptr %5, align 8
  %77 = load ptr, ptr %6, align 8
  %78 = load ptr, ptr %12, align 8
  %79 = load i32, ptr %8, align 4
  %80 = call i32 @fDateTime(ptr noundef %76, ptr noundef %77, ptr noundef %78, i32 noundef %79, ptr noundef @.str.3891)
  store i32 %80, ptr %8, align 4
  br label %82

81:                                               ; preds = %30
  br label %82

82:                                               ; preds = %81, %70, %59, %48
  %83 = load ptr, ptr %5, align 8
  %84 = load ptr, ptr %6, align 8
  %85 = load ptr, ptr %12, align 8
  %86 = load i32, ptr %8, align 4
  %87 = call i32 @fTagHeaderTree(ptr noundef %83, ptr noundef %84, ptr noundef %85, i32 noundef %86, ptr noundef %9, ptr noundef %10, ptr noundef %11)
  %88 = load i32, ptr %8, align 4
  %89 = add i32 %88, %87
  store i32 %89, ptr %8, align 4
  br label %90

90:                                               ; preds = %82, %23
  br label %91

91:                                               ; preds = %90, %4
  %92 = load i32, ptr %8, align 4
  call void @llvm.lifetime.end.p0(i64 8, ptr %12) #7
  call void @llvm.lifetime.end.p0(i64 4, ptr %11) #7
  call void @llvm.lifetime.end.p0(i64 1, ptr %10) #7
  call void @llvm.lifetime.end.p0(i64 1, ptr %9) #7
  ret i32 %92
}