; Function Attrs: null_pointer_is_valid sspstrong uwtable
define internal fastcc i32 @fReadRangeRequest(ptr noundef nonnull %0, ptr noundef %1, ptr noundef %2, i32 noundef range(i32 0, 7) %3) unnamed_addr #0 {
  %5 = alloca i8, align 1
  %6 = alloca i8, align 1
  %7 = alloca i32, align 4
  call void @llvm.lifetime.start.p0(i64 1, ptr nonnull %5) #6
  call void @llvm.lifetime.start.p0(i64 1, ptr nonnull %6) #6
  call void @llvm.lifetime.start.p0(i64 4, ptr nonnull %7) #6
  %8 = tail call fastcc i32 @fBACnetObjectPropertyReference(ptr noundef %0, ptr noundef %1, ptr noundef %2, i32 noundef %3)
  %9 = tail call i32 @tvb_reported_length_remaining(ptr noundef nonnull %0, i32 noundef %8)
  %10 = icmp sgt i32 %9, 0
  br i1 %10, label %11, label %46

11:                                               ; preds = %4
  %12 = call fastcc range(i32 1, 8) i32 @fTagHeaderTree(ptr noundef nonnull %0, ptr noundef %1, ptr noundef null, i32 noundef %8, ptr noundef nonnull %5, ptr noundef nonnull %6, ptr noundef nonnull %7)
  %13 = load i8, ptr %6, align 1
  %14 = and i8 %13, 7
  %15 = icmp eq i8 %14, 6
  br i1 %15, label %16, label %46

16:                                               ; preds = %11
  %17 = load i32, ptr @ett_bacapp_value, align 4
  %18 = load i8, ptr %5, align 1
  %19 = zext i8 %18 to i32
  %20 = tail call ptr @val_to_str_const(i32 noundef %19, ptr noundef nonnull @BACnetReadRangeOptions, ptr noundef nonnull @.str.3886)
  %21 = tail call ptr @proto_tree_add_subtree(ptr noundef %2, ptr noundef nonnull %0, i32 noundef %8, i32 noundef 1, i32 noundef %17, ptr noundef null, ptr noundef %20)
  %22 = call fastcc i32 @fTagHeaderTree(ptr noundef %0, ptr noundef %1, ptr noundef %21, i32 noundef %8, ptr noundef nonnull %5, ptr noundef nonnull %6, ptr noundef nonnull %7)
  %23 = add i32 %22, %8
  %24 = load i8, ptr %5, align 1
  switch i8 %24, label %43 [
    i8 3, label %25
    i8 6, label %25
    i8 4, label %28
    i8 7, label %28
    i8 5, label %34
  ]

25:                                               ; preds = %16, %16
  %26 = tail call fastcc i32 @fApplicationTypesEnumeratedSplit(ptr noundef nonnull %0, ptr noundef %1, ptr noundef %21, i32 noundef %23, ptr noundef nonnull @.str.3887, ptr noundef null, i32 noundef 0)
  %27 = tail call fastcc i32 @fApplicationTypesEnumeratedSplit(ptr noundef nonnull %0, ptr noundef %1, ptr noundef %21, i32 noundef %26, ptr noundef nonnull @.str.3888, ptr noundef null, i32 noundef 0)
  br label %43

28:                                               ; preds = %16, %16
  %29 = load i32, ptr @ett_bacapp_value, align 4
  %30 = tail call ptr @proto_tree_add_subtree(ptr noundef %21, ptr noundef nonnull %0, i32 noundef %23, i32 noundef 10, i32 noundef %29, ptr noundef null, ptr noundef nonnull @.str.3889)
  %31 = tail call fastcc i32 @fDate(ptr noundef nonnull %0, ptr noundef %1, ptr noundef %30, i32 noundef %23, ptr noundef nonnull @.str.3055)
  %32 = tail call fastcc i32 @fTime(ptr noundef nonnull %0, ptr noundef %1, ptr noundef %30, i32 noundef %31, ptr noundef nonnull @.str.3056)
  %33 = tail call fastcc i32 @fApplicationTypesEnumeratedSplit(ptr noundef nonnull %0, ptr noundef %1, ptr noundef %21, i32 noundef %32, ptr noundef nonnull @.str.3888, ptr noundef null, i32 noundef 0)
  br label %43

34:                                               ; preds = %16
  %35 = load i32, ptr @ett_bacapp_value, align 4
  %36 = tail call ptr @proto_tree_add_subtree(ptr noundef %21, ptr noundef nonnull %0, i32 noundef %23, i32 noundef 10, i32 noundef %35, ptr noundef null, ptr noundef nonnull @.str.3890)
  %37 = tail call fastcc i32 @fDate(ptr noundef nonnull %0, ptr noundef %1, ptr noundef %36, i32 noundef %23, ptr noundef nonnull @.str.3055)
  %38 = tail call fastcc i32 @fTime(ptr noundef nonnull %0, ptr noundef %1, ptr noundef %36, i32 noundef %37, ptr noundef nonnull @.str.3056)
  %39 = load i32, ptr @ett_bacapp_value, align 4
  %40 = tail call ptr @proto_tree_add_subtree(ptr noundef %21, ptr noundef nonnull %0, i32 noundef %38, i32 noundef 10, i32 noundef %39, ptr noundef null, ptr noundef nonnull @.str.3891)
  %41 = tail call fastcc i32 @fDate(ptr noundef nonnull %0, ptr noundef %1, ptr noundef %40, i32 noundef %38, ptr noundef nonnull @.str.3055)
  %42 = tail call fastcc i32 @fTime(ptr noundef nonnull %0, ptr noundef %1, ptr noundef %40, i32 noundef %41, ptr noundef nonnull @.str.3056)
  br label %43

43:                                               ; preds = %16, %34, %28, %25
  %.1 = phi i32 [ %23, %16 ], [ %42, %34 ], [ %33, %28 ], [ %27, %25 ]
  %44 = call fastcc i32 @fTagHeaderTree(ptr noundef %0, ptr noundef %1, ptr noundef %21, i32 noundef %.1, ptr noundef nonnull %5, ptr noundef nonnull %6, ptr noundef nonnull %7)
  %45 = add i32 %44, %.1
  br label %46

46:                                               ; preds = %11, %43, %4
  %.0 = phi i32 [ %45, %43 ], [ %8, %11 ], [ %8, %4 ]
  call void @llvm.lifetime.end.p0(i64 4, ptr nonnull %7) #6
  call void @llvm.lifetime.end.p0(i64 1, ptr nonnull %6) #6
  call void @llvm.lifetime.end.p0(i64 1, ptr nonnull %5) #6
  ret i32 %.0
}